80000000 <write_mem>:
80000000:       00b52023                sw      a1,0(a0)
80000004:       00008067                ret

80000008 <read_mem>:
80000008:       00052503                lw      a0,0(a0)
8000000c:       00008067                ret

80000010 <uart_write_byte>:
80000010:       10000737                lui     a4,0x10000
80000014:       00870713                addi    a4,a4,8 # 10000008 <write_mem-0x6ffffff8>
80000018:       100006b7                lui     a3,0x10000
8000001c:       00072783                lw      a5,0(a4)
80000020:       0207f793                andi    a5,a5,32
80000024:       fe078ce3                beqz    a5,8000001c <uart_write_byte+0xc>
80000028:       00a6a023                sw      a0,0(a3) # 10000000 <write_mem-0x70000000>
8000002c:       00008067                ret

80000030 <uart_read_byte>:
80000030:       10000737                lui     a4,0x10000
80000034:       00870713                addi    a4,a4,8 # 10000008 <write_mem-0x6ffffff8>
80000038:       00072783                lw      a5,0(a4)
8000003c:       0017f793                andi    a5,a5,1
80000040:       fe078ce3                beqz    a5,80000038 <uart_read_byte+0x8>
80000044:       100007b7                lui     a5,0x10000
80000048:       0047a503                lw      a0,4(a5) # 10000004 <write_mem-0x6ffffffc>
8000004c:       0ff57513                zext.b  a0,a0
80000050:       00008067                ret

80000054 <uart_write_string>:
80000054:       00054683                lbu     a3,0(a0)
80000058:       02068663                beqz    a3,80000084 <uart_write_string+0x30>
8000005c:       10000737                lui     a4,0x10000
80000060:       00870713                addi    a4,a4,8 # 10000008 <write_mem-0x6ffffff8>
80000064:       10000637                lui     a2,0x10000
80000068:       00150513                addi    a0,a0,1
8000006c:       00072783                lw      a5,0(a4)
80000070:       0207f793                andi    a5,a5,32
80000074:       fe078ce3                beqz    a5,8000006c <uart_write_string+0x18>
80000078:       00d62023                sw      a3,0(a2) # 10000000 <write_mem-0x70000000>
8000007c:       00054683                lbu     a3,0(a0)
80000080:       fe0694e3                bnez    a3,80000068 <uart_write_string+0x14>
80000084:       00008067                ret

80000088 <uart_echo_test>:
80000088:       800006b7                lui     a3,0x80000
8000008c:       10000737                lui     a4,0x10000
80000090:       1e468693                addi    a3,a3,484 # 800001e4 <_start+0xc>
80000094:       00870713                addi    a4,a4,8 # 10000008 <write_mem-0x6ffffff8>
80000098:       05500613                li      a2,85
8000009c:       100005b7                lui     a1,0x10000
800000a0:       00168693                addi    a3,a3,1
800000a4:       00072783                lw      a5,0(a4)
800000a8:       0207f793                andi    a5,a5,32
800000ac:       fe078ce3                beqz    a5,800000a4 <uart_echo_test+0x1c>
800000b0:       00c5a023                sw      a2,0(a1) # 10000000 <write_mem-0x70000000>
800000b4:       0006c603                lbu     a2,0(a3)
800000b8:       fe0614e3                bnez    a2,800000a0 <uart_echo_test+0x18>
800000bc:       04050863                beqz    a0,8000010c <uart_echo_test+0x84>
800000c0:       10000737                lui     a4,0x10000
800000c4:       00070813                mv      a6,a4
800000c8:       00480813                addi    a6,a6,4
800000cc:       00870713                addi    a4,a4,8 # 10000008 <write_mem-0x6ffffff8>
800000d0:       800015b7                lui     a1,0x80001
800000d4:       100008b7                lui     a7,0x10000
800000d8:       00072783                lw      a5,0(a4)
800000dc:       0017f793                andi    a5,a5,1
800000e0:       fe078ce3                beqz    a5,800000d8 <uart_echo_test+0x50>
800000e4:       00082683                lw      a3,0(a6)
800000e8:       00072783                lw      a5,0(a4)
800000ec:       0207f793                andi    a5,a5,32
800000f0:       fe078ce3                beqz    a5,800000e8 <uart_echo_test+0x60>
800000f4:       0ff6f793                zext.b  a5,a3
800000f8:       00f8a023                sw      a5,0(a7) # 10000000 <write_mem-0x70000000>
800000fc:       00f5a023                sw      a5,0(a1) # 80001000 <_start+0xe28>
80000100:       00160613                addi    a2,a2,1
80000104:       00458593                addi    a1,a1,4
80000108:       fcc518e3                bne     a0,a2,800000d8 <uart_echo_test+0x50>
8000010c:       800006b7                lui     a3,0x80000
80000110:       10000737                lui     a4,0x10000
80000114:       20868693                addi    a3,a3,520 # 80000208 <_start+0x30>
80000118:       00870713                addi    a4,a4,8 # 10000008 <write_mem-0x6ffffff8>
8000011c:       00d00613                li      a2,13
80000120:       100005b7                lui     a1,0x10000
80000124:       00168693                addi    a3,a3,1
80000128:       00072783                lw      a5,0(a4)
8000012c:       0207f793                andi    a5,a5,32
80000130:       fe078ce3                beqz    a5,80000128 <uart_echo_test+0xa0>
80000134:       00c5a023                sw      a2,0(a1) # 10000000 <write_mem-0x70000000>
80000138:       0006c603                lbu     a2,0(a3)
8000013c:       fe0614e3                bnez    a2,80000124 <uart_echo_test+0x9c>
80000140:       00008067                ret

80000144 <c_start>:
80000144:       ff010113                addi    sp,sp,-16
80000148:       fff00713                li      a4,-1
8000014c:       00112623                sw      ra,12(sp)
80000150:       800027b7                lui     a5,0x80002
80000154:       80000537                lui     a0,0x80000
80000158:       00e7a023                sw      a4,0(a5) # 80002000 <_start+0x1e28>
8000015c:       21c50513                addi    a0,a0,540 # 8000021c <_start+0x44>
80000160:       ef5ff0ef                jal     80000054 <uart_write_string>
80000164:       80000537                lui     a0,0x80000
80000168:       23850513                addi    a0,a0,568 # 80000238 <_start+0x60>
8000016c:       ee9ff0ef                jal     80000054 <uart_write_string>
80000170:       80000537                lui     a0,0x80000
80000174:       25050513                addi    a0,a0,592 # 80000250 <_start+0x78>
80000178:       eddff0ef                jal     80000054 <uart_write_string>
8000017c:       10000737                lui     a4,0x10000
80000180:       00870713                addi    a4,a4,8 # 10000008 <write_mem-0x6ffffff8>
80000184:       04100693                li      a3,65
80000188:       100005b7                lui     a1,0x10000
8000018c:       05b00613                li      a2,91
80000190:       00072783                lw      a5,0(a4)
80000194:       0207f793                andi    a5,a5,32
80000198:       fe078ce3                beqz    a5,80000190 <c_start+0x4c>
8000019c:       00d5a023                sw      a3,0(a1) # 10000000 <write_mem-0x70000000>
800001a0:       00168693                addi    a3,a3,1
800001a4:       fec696e3                bne     a3,a2,80000190 <c_start+0x4c>
800001a8:       80000537                lui     a0,0x80000
800001ac:       26c50513                addi    a0,a0,620 # 8000026c <_start+0x94>
800001b0:       ea5ff0ef                jal     80000054 <uart_write_string>
800001b4:       00a00513                li      a0,10
800001b8:       ed1ff0ef                jal     80000088 <uart_echo_test>
800001bc:       1badd7b7                lui     a5,0x1badd
800001c0:       afe78793                addi    a5,a5,-1282 # 1badcafe <write_mem-0x64523502>
800001c4:       80002737                lui     a4,0x80002
800001c8:       00f72023                sw      a5,0(a4) # 80002000 <_start+0x1e28>
800001cc:       00000013                nop
800001d0:       00000013                nop
800001d4:       ff9ff06f                j       800001cc <c_start+0x88>

800001d8 <_start>:
800001d8:       84000137                lui     sp,0x84000
800001dc:       f69ff0ef                jal     80000144 <c_start>
800001e0:       0000006f                j       800001e0 <_start+0x8>